; Function Attrs: null_pointer_is_valid sspstrong uwtable
define internal void @dissect_r3_cmdmfg_testpreserve(ptr noundef %0, i32 noundef %1, i32 %2, ptr readnone captures(none) %3, ptr noundef %4) #0 {
  %6 = load i32, ptr @hf_r3_commandmfglength, align 4
  %7 = tail call ptr @proto_tree_add_item(ptr noundef %4, i32 noundef %6, ptr noundef %0, i32 noundef %1, i32 noundef 1, i32 noundef -2147483648)
  %8 = load i32, ptr @hf_r3_commandmfg, align 4
  %9 = add i32 %1, 1
  %10 = tail call ptr @proto_tree_add_item(ptr noundef %4, i32 noundef %8, ptr noundef %0, i32 noundef %9, i32 noundef 1, i32 noundef -2147483648)
  %11 = load i32, ptr @hf_r3_mfgtestpreserve, align 4
  %12 = add i32 %1, 2
  %13 = tail call ptr @proto_tree_add_item(ptr noundef %4, i32 noundef %11, ptr noundef %0, i32 noundef %12, i32 noundef 1, i32 noundef -2147483648)
  ret void
}